
RostelecomSound.elf:     file format elf32-avr

Sections:
Idx Name          Size      VMA       LMA       File off  Algn
  0 .text         00000310  00000000  00000000  00000074  2**1
                  CONTENTS, ALLOC, LOAD, READONLY, CODE
  1 .data         00000000  00800060  00800060  00000384  2**0
                  CONTENTS, ALLOC, LOAD, DATA
  2 .bss          00000017  00800060  00800060  00000384  2**0
                  ALLOC
  3 .comment      00000030  00000000  00000000  00000384  2**0
                  CONTENTS, READONLY
  4 .note.gnu.avr.deviceinfo 0000003c  00000000  00000000  000003b4  2**2
                  CONTENTS, READONLY
  5 .debug_info   000002dc  00000000  00000000  000003f0  2**0
                  CONTENTS, READONLY, DEBUGGING
  6 .debug_abbrev 000002b6  00000000  00000000  000006cc  2**0
                  CONTENTS, READONLY, DEBUGGING
  7 .debug_line   000000ca  00000000  00000000  00000982  2**0
                  CONTENTS, READONLY, DEBUGGING
  8 .debug_str    00000100  00000000  00000000  00000a4c  2**0
                  CONTENTS, READONLY, DEBUGGING

Disassembly of section .text:

00000000 <__vectors>:
   0:	09 c0       	rjmp	.+18     	; 0x14 <__ctors_end>
   2:	b4 c0       	rjmp	.+360    	; 0x16c <__vector_1>
   4:	15 c0       	rjmp	.+42     	; 0x30 <__bad_interrupt>
   6:	15 c0       	rjmp	.+42     	; 0x32 <__vector_3>
   8:	13 c0       	rjmp	.+38     	; 0x30 <__bad_interrupt>
   a:	12 c0       	rjmp	.+36     	; 0x30 <__bad_interrupt>
   c:	11 c0       	rjmp	.+34     	; 0x30 <__bad_interrupt>
   e:	10 c0       	rjmp	.+32     	; 0x30 <__bad_interrupt>
  10:	0f c0       	rjmp	.+30     	; 0x30 <__bad_interrupt>
  12:	0e c0       	rjmp	.+28     	; 0x30 <__bad_interrupt>

00000014 <__ctors_end>:
  14:	11 24       	eor	r1, r1
  16:	1f be       	out	0x3f, r1	; 63
  18:	cf e9       	ldi	r28, 0x9F	; 159
  1a:	cd bf       	out	0x3d, r28	; 61

0000001c <__do_clear_bss>:
  1c:	20 e0       	ldi	r18, 0x00	; 0
  1e:	a0 e6       	ldi	r26, 0x60	; 96
  20:	b0 e0       	ldi	r27, 0x00	; 0
  22:	01 c0       	rjmp	.+2      	; 0x26 <.do_clear_bss_start>

00000024 <.do_clear_bss_loop>:
  24:	1d 92       	st	X+, r1

00000026 <.do_clear_bss_start>:
  26:	a7 37       	cpi	r26, 0x77	; 119
  28:	b2 07       	cpc	r27, r18
  2a:	e1 f7       	brne	.-8      	; 0x24 <.do_clear_bss_loop>
  2c:	20 d1       	rcall	.+576    	; 0x26e <main>
  2e:	6e c1       	rjmp	.+732    	; 0x30c <_exit>

00000030 <__bad_interrupt>:
  30:	e7 cf       	rjmp	.-50     	; 0x0 <__vectors>

00000032 <__vector_3>:
  32:	1f 92       	push	r1
  34:	0f 92       	push	r0
  36:	0f b6       	in	r0, 0x3f	; 63
  38:	0f 92       	push	r0
  3a:	11 24       	eor	r1, r1
  3c:	8f 93       	push	r24
  3e:	9f 93       	push	r25
  40:	af 93       	push	r26
  42:	bf 93       	push	r27
  44:	80 91 60 00 	lds	r24, 0x0060	; 0x800060 <__DATA_REGION_ORIGIN__>
  48:	90 91 61 00 	lds	r25, 0x0061	; 0x800061 <__DATA_REGION_ORIGIN__+0x1>
  4c:	a0 91 62 00 	lds	r26, 0x0062	; 0x800062 <__DATA_REGION_ORIGIN__+0x2>
  50:	b0 91 63 00 	lds	r27, 0x0063	; 0x800063 <__DATA_REGION_ORIGIN__+0x3>
  54:	01 96       	adiw	r24, 0x01	; 1
  56:	a1 1d       	adc	r26, r1
  58:	b1 1d       	adc	r27, r1
  5a:	80 93 60 00 	sts	0x0060, r24	; 0x800060 <__DATA_REGION_ORIGIN__>
  5e:	90 93 61 00 	sts	0x0061, r25	; 0x800061 <__DATA_REGION_ORIGIN__+0x1>
  62:	a0 93 62 00 	sts	0x0062, r26	; 0x800062 <__DATA_REGION_ORIGIN__+0x2>
  66:	b0 93 63 00 	sts	0x0063, r27	; 0x800063 <__DATA_REGION_ORIGIN__+0x3>
  6a:	bf 91       	pop	r27
  6c:	af 91       	pop	r26
  6e:	9f 91       	pop	r25
  70:	8f 91       	pop	r24
  72:	0f 90       	pop	r0
  74:	0f be       	out	0x3f, r0	; 63
  76:	0f 90       	pop	r0
  78:	1f 90       	pop	r1
  7a:	18 95       	reti

0000007c <_Z15getExpectedTimehh>:
  7c:	9e ef       	ldi	r25, 0xFE	; 254
  7e:	96 0f       	add	r25, r22
  80:	93 30       	cpi	r25, 0x03	; 3
  82:	40 f0       	brcs	.+16     	; 0x94 <_Z15getExpectedTimehh+0x18>
  84:	91 ef       	ldi	r25, 0xF1	; 241
  86:	96 0f       	add	r25, r22
  88:	93 30       	cpi	r25, 0x03	; 3
  8a:	20 f0       	brcs	.+8      	; 0x94 <_Z15getExpectedTimehh+0x18>
  8c:	9c ee       	ldi	r25, 0xEC	; 236
  8e:	96 0f       	add	r25, r22
  90:	92 30       	cpi	r25, 0x02	; 2
  92:	78 f4       	brcc	.+30     	; 0xb2 <__stack+0x13>
  94:	28 2f       	mov	r18, r24
  96:	30 e0       	ldi	r19, 0x00	; 0
  98:	a9 01       	movw	r20, r18
  9a:	02 c0       	rjmp	.+4      	; 0xa0 <__stack+0x1>
  9c:	55 95       	asr	r21
  9e:	47 95       	ror	r20
  a0:	9a 95       	dec	r25
  a2:	e2 f7       	brpl	.-8      	; 0x9c <_Z15getExpectedTimehh+0x20>
  a4:	40 ff       	sbrs	r20, 0
  a6:	05 c0       	rjmp	.+10     	; 0xb2 <__stack+0x13>
  a8:	68 ec       	ldi	r22, 0xC8	; 200
  aa:	7f ea       	ldi	r23, 0xAF	; 175
  ac:	80 e0       	ldi	r24, 0x00	; 0
  ae:	90 e0       	ldi	r25, 0x00	; 0
  b0:	08 95       	ret
  b2:	60 ec       	ldi	r22, 0xC0	; 192
  b4:	7d e5       	ldi	r23, 0x5D	; 93
  b6:	80 e0       	ldi	r24, 0x00	; 0
  b8:	90 e0       	ldi	r25, 0x00	; 0
  ba:	08 95       	ret

000000bc <_Z16incrementCounterhPVh>:
  bc:	cf 92       	push	r12
  be:	df 92       	push	r13
  c0:	ef 92       	push	r14
  c2:	ff 92       	push	r15
  c4:	0f 93       	push	r16
  c6:	1f 93       	push	r17
  c8:	cf 93       	push	r28
  ca:	df 93       	push	r29
  cc:	18 2f       	mov	r17, r24
  ce:	eb 01       	movw	r28, r22
  d0:	98 b3       	in	r25, 0x18	; 24
  d2:	88 81       	ld	r24, Y
  d4:	96 fb       	bst	r25, 6
  d6:	44 27       	eor	r20, r20
  d8:	40 f9       	bld	r20, 0
  da:	50 e0       	ldi	r21, 0x00	; 0
  dc:	28 2f       	mov	r18, r24
  de:	21 70       	andi	r18, 0x01	; 1
  e0:	30 e0       	ldi	r19, 0x00	; 0
  e2:	42 17       	cp	r20, r18
  e4:	53 07       	cpc	r21, r19
  e6:	b9 f1       	breq	.+110    	; 0x156 <_Z16incrementCounterhPVh+0x9a>
  e8:	68 81       	ld	r22, Y
  ea:	81 2f       	mov	r24, r17
  ec:	c7 df       	rcall	.-114    	; 0x7c <_Z15getExpectedTimehh>
  ee:	c0 90 6f 00 	lds	r12, 0x006F	; 0x80006f <_pulseDuration>
  f2:	d0 90 70 00 	lds	r13, 0x0070	; 0x800070 <_pulseDuration+0x1>
  f6:	e0 90 71 00 	lds	r14, 0x0071	; 0x800071 <_pulseDuration+0x2>
  fa:	f0 90 72 00 	lds	r15, 0x0072	; 0x800072 <_pulseDuration+0x3>
  fe:	dc 01       	movw	r26, r24
 100:	cb 01       	movw	r24, r22
 102:	85 51       	subi	r24, 0x15	; 21
 104:	94 43       	sbci	r25, 0x34	; 52
 106:	a1 09       	sbc	r26, r1
 108:	b1 09       	sbc	r27, r1
 10a:	c8 16       	cp	r12, r24
 10c:	d9 06       	cpc	r13, r25
 10e:	ea 06       	cpc	r14, r26
 110:	fb 06       	cpc	r15, r27
 112:	08 f1       	brcs	.+66     	; 0x156 <_Z16incrementCounterhPVh+0x9a>
 114:	68 81       	ld	r22, Y
 116:	81 2f       	mov	r24, r17
 118:	b1 df       	rcall	.-158    	; 0x7c <_Z15getExpectedTimehh>
 11a:	00 91 6f 00 	lds	r16, 0x006F	; 0x80006f <_pulseDuration>
 11e:	10 91 70 00 	lds	r17, 0x0070	; 0x800070 <_pulseDuration+0x1>
 122:	20 91 71 00 	lds	r18, 0x0071	; 0x800071 <_pulseDuration+0x2>
 126:	30 91 72 00 	lds	r19, 0x0072	; 0x800072 <_pulseDuration+0x3>
 12a:	dc 01       	movw	r26, r24
 12c:	cb 01       	movw	r24, r22
 12e:	8b 5e       	subi	r24, 0xEB	; 235
 130:	9b 4c       	sbci	r25, 0xCB	; 203
 132:	af 4f       	sbci	r26, 0xFF	; 255
 134:	bf 4f       	sbci	r27, 0xFF	; 255
 136:	80 17       	cp	r24, r16
 138:	91 07       	cpc	r25, r17
 13a:	a2 07       	cpc	r26, r18
 13c:	b3 07       	cpc	r27, r19
 13e:	58 f0       	brcs	.+22     	; 0x156 <_Z16incrementCounterhPVh+0x9a>
 140:	88 81       	ld	r24, Y
 142:	8f 5f       	subi	r24, 0xFF	; 255
 144:	88 83       	st	Y, r24
 146:	88 81       	ld	r24, Y
 148:	87 31       	cpi	r24, 0x17	; 23
 14a:	19 f4       	brne	.+6      	; 0x152 <_Z16incrementCounterhPVh+0x96>
 14c:	18 82       	st	Y, r1
 14e:	81 e0       	ldi	r24, 0x01	; 1
 150:	04 c0       	rjmp	.+8      	; 0x15a <_Z16incrementCounterhPVh+0x9e>
 152:	80 e0       	ldi	r24, 0x00	; 0
 154:	02 c0       	rjmp	.+4      	; 0x15a <_Z16incrementCounterhPVh+0x9e>
 156:	18 82       	st	Y, r1
 158:	f6 cf       	rjmp	.-20     	; 0x146 <_Z16incrementCounterhPVh+0x8a>
 15a:	df 91       	pop	r29
 15c:	cf 91       	pop	r28
 15e:	1f 91       	pop	r17
 160:	0f 91       	pop	r16
 162:	ff 90       	pop	r15
 164:	ef 90       	pop	r14
 166:	df 90       	pop	r13
 168:	cf 90       	pop	r12
 16a:	08 95       	ret

0000016c <__vector_1>:
 16c:	1f 92       	push	r1
 16e:	0f 92       	push	r0
 170:	0f b6       	in	r0, 0x3f	; 63
 172:	0f 92       	push	r0
 174:	11 24       	eor	r1, r1
 176:	2f 93       	push	r18
 178:	3f 93       	push	r19
 17a:	4f 93       	push	r20
 17c:	5f 93       	push	r21
 17e:	6f 93       	push	r22
 180:	7f 93       	push	r23
 182:	8f 93       	push	r24
 184:	9f 93       	push	r25
 186:	af 93       	push	r26
 188:	bf 93       	push	r27
 18a:	ef 93       	push	r30
 18c:	ff 93       	push	r31
 18e:	80 91 60 00 	lds	r24, 0x0060	; 0x800060 <__DATA_REGION_ORIGIN__>
 192:	90 91 61 00 	lds	r25, 0x0061	; 0x800061 <__DATA_REGION_ORIGIN__+0x1>
 196:	a0 91 62 00 	lds	r26, 0x0062	; 0x800062 <__DATA_REGION_ORIGIN__+0x2>
 19a:	b0 91 63 00 	lds	r27, 0x0063	; 0x800063 <__DATA_REGION_ORIGIN__+0x3>
 19e:	40 91 73 00 	lds	r20, 0x0073	; 0x800073 <_RXPreviousTime>
 1a2:	50 91 74 00 	lds	r21, 0x0074	; 0x800074 <_RXPreviousTime+0x1>
 1a6:	60 91 75 00 	lds	r22, 0x0075	; 0x800075 <_RXPreviousTime+0x2>
 1aa:	70 91 76 00 	lds	r23, 0x0076	; 0x800076 <_RXPreviousTime+0x3>
 1ae:	84 1b       	sub	r24, r20
 1b0:	95 0b       	sbc	r25, r21
 1b2:	a6 0b       	sbc	r26, r22
 1b4:	b7 0b       	sbc	r27, r23
 1b6:	80 93 6f 00 	sts	0x006F, r24	; 0x80006f <_pulseDuration>
 1ba:	90 93 70 00 	sts	0x0070, r25	; 0x800070 <_pulseDuration+0x1>
 1be:	a0 93 71 00 	sts	0x0071, r26	; 0x800071 <_pulseDuration+0x2>
 1c2:	b0 93 72 00 	sts	0x0072, r27	; 0x800072 <_pulseDuration+0x3>
 1c6:	80 91 60 00 	lds	r24, 0x0060	; 0x800060 <__DATA_REGION_ORIGIN__>
 1ca:	90 91 61 00 	lds	r25, 0x0061	; 0x800061 <__DATA_REGION_ORIGIN__+0x1>
 1ce:	a0 91 62 00 	lds	r26, 0x0062	; 0x800062 <__DATA_REGION_ORIGIN__+0x2>
 1d2:	b0 91 63 00 	lds	r27, 0x0063	; 0x800063 <__DATA_REGION_ORIGIN__+0x3>
 1d6:	80 93 73 00 	sts	0x0073, r24	; 0x800073 <_RXPreviousTime>
 1da:	90 93 74 00 	sts	0x0074, r25	; 0x800074 <_RXPreviousTime+0x1>
 1de:	a0 93 75 00 	sts	0x0075, r26	; 0x800075 <_RXPreviousTime+0x2>
 1e2:	b0 93 76 00 	sts	0x0076, r27	; 0x800076 <_RXPreviousTime+0x3>
 1e6:	6e e6       	ldi	r22, 0x6E	; 110
 1e8:	70 e0       	ldi	r23, 0x00	; 0
 1ea:	89 e1       	ldi	r24, 0x19	; 25
 1ec:	67 df       	rcall	.-306    	; 0xbc <_Z16incrementCounterhPVh>
 1ee:	81 11       	cpse	r24, r1
 1f0:	06 c0       	rjmp	.+12     	; 0x1fe <__vector_1+0x92>
 1f2:	6d e6       	ldi	r22, 0x6D	; 109
 1f4:	70 e0       	ldi	r23, 0x00	; 0
 1f6:	8c e1       	ldi	r24, 0x1C	; 28
 1f8:	61 df       	rcall	.-318    	; 0xbc <_Z16incrementCounterhPVh>
 1fa:	88 23       	and	r24, r24
 1fc:	21 f0       	breq	.+8      	; 0x206 <__vector_1+0x9a>
 1fe:	81 e0       	ldi	r24, 0x01	; 1
 200:	80 93 68 00 	sts	0x0068, r24	; 0x800068 <_upFire>
 204:	23 c0       	rjmp	.+70     	; 0x24c <__vector_1+0xe0>
 206:	6c e6       	ldi	r22, 0x6C	; 108
 208:	70 e0       	ldi	r23, 0x00	; 0
 20a:	8c e9       	ldi	r24, 0x9C	; 156
 20c:	57 df       	rcall	.-338    	; 0xbc <_Z16incrementCounterhPVh>
 20e:	81 11       	cpse	r24, r1
 210:	06 c0       	rjmp	.+12     	; 0x21e <__vector_1+0xb2>
 212:	6b e6       	ldi	r22, 0x6B	; 107
 214:	70 e0       	ldi	r23, 0x00	; 0
 216:	89 e9       	ldi	r24, 0x99	; 153
 218:	51 df       	rcall	.-350    	; 0xbc <_Z16incrementCounterhPVh>
 21a:	88 23       	and	r24, r24
 21c:	21 f0       	breq	.+8      	; 0x226 <__vector_1+0xba>
 21e:	81 e0       	ldi	r24, 0x01	; 1
 220:	80 93 67 00 	sts	0x0067, r24	; 0x800067 <_downFire>
 224:	13 c0       	rjmp	.+38     	; 0x24c <__vector_1+0xe0>
 226:	6a e6       	ldi	r22, 0x6A	; 106
 228:	70 e0       	ldi	r23, 0x00	; 0
 22a:	84 ee       	ldi	r24, 0xE4	; 228
 22c:	47 df       	rcall	.-370    	; 0xbc <_Z16incrementCounterhPVh>
 22e:	88 23       	and	r24, r24
 230:	21 f0       	breq	.+8      	; 0x23a <__vector_1+0xce>
 232:	81 e0       	ldi	r24, 0x01	; 1
 234:	80 93 66 00 	sts	0x0066, r24	; 0x800066 <_muteOnFire>
 238:	09 c0       	rjmp	.+18     	; 0x24c <__vector_1+0xe0>
 23a:	69 e6       	ldi	r22, 0x69	; 105
 23c:	70 e0       	ldi	r23, 0x00	; 0
 23e:	81 ee       	ldi	r24, 0xE1	; 225
 240:	3d df       	rcall	.-390    	; 0xbc <_Z16incrementCounterhPVh>
 242:	88 23       	and	r24, r24
 244:	19 f0       	breq	.+6      	; 0x24c <__vector_1+0xe0>
 246:	81 e0       	ldi	r24, 0x01	; 1
 248:	80 93 65 00 	sts	0x0065, r24	; 0x800065 <_muteOffFire>
 24c:	ff 91       	pop	r31
 24e:	ef 91       	pop	r30
 250:	bf 91       	pop	r27
 252:	af 91       	pop	r26
 254:	9f 91       	pop	r25
 256:	8f 91       	pop	r24
 258:	7f 91       	pop	r23
 25a:	6f 91       	pop	r22
 25c:	5f 91       	pop	r21
 25e:	4f 91       	pop	r20
 260:	3f 91       	pop	r19
 262:	2f 91       	pop	r18
 264:	0f 90       	pop	r0
 266:	0f be       	out	0x3f, r0	; 63
 268:	0f 90       	pop	r0
 26a:	1f 90       	pop	r1
 26c:	18 95       	reti

0000026e <main>:
 26e:	8d e0       	ldi	r24, 0x0D	; 13
 270:	87 bb       	out	0x17, r24	; 23
 272:	80 e4       	ldi	r24, 0x40	; 64
 274:	8b bf       	out	0x3b, r24	; 59
 276:	85 b7       	in	r24, 0x35	; 53
 278:	81 60       	ori	r24, 0x01	; 1
 27a:	85 bf       	out	0x35, r24	; 53
 27c:	85 b7       	in	r24, 0x35	; 53
 27e:	8d 7f       	andi	r24, 0xFD	; 253
 280:	85 bf       	out	0x35, r24	; 53
 282:	82 e0       	ldi	r24, 0x02	; 2
 284:	89 bf       	out	0x39, r24	; 57
 286:	88 b3       	in	r24, 0x18	; 24
 288:	83 7f       	andi	r24, 0xF3	; 243
 28a:	88 bb       	out	0x18, r24	; 24
 28c:	78 94       	sei
 28e:	80 91 68 00 	lds	r24, 0x0068	; 0x800068 <_upFire>
 292:	88 23       	and	r24, r24
 294:	21 f0       	breq	.+8      	; 0x29e <main+0x30>
 296:	10 92 68 00 	sts	0x0068, r1	; 0x800068 <_upFire>
 29a:	c2 9a       	sbi	0x18, 2	; 24
 29c:	07 c0       	rjmp	.+14     	; 0x2ac <main+0x3e>
 29e:	80 91 67 00 	lds	r24, 0x0067	; 0x800067 <_downFire>
 2a2:	88 23       	and	r24, r24
 2a4:	b9 f0       	breq	.+46     	; 0x2d4 <main+0x66>
 2a6:	10 92 67 00 	sts	0x0067, r1	; 0x800067 <_downFire>
 2aa:	c2 98       	cbi	0x18, 2	; 24
 2ac:	c3 9a       	sbi	0x18, 3	; 24
 2ae:	8f e5       	ldi	r24, 0x5F	; 95
 2b0:	99 e0       	ldi	r25, 0x09	; 9
 2b2:	01 97       	sbiw	r24, 0x01	; 1
 2b4:	f1 f7       	brne	.-4      	; 0x2b2 <main+0x44>
 2b6:	00 c0       	rjmp	.+0      	; 0x2b8 <main+0x4a>
 2b8:	00 00       	nop
 2ba:	c3 98       	cbi	0x18, 3	; 24
 2bc:	ef e5       	ldi	r30, 0x5F	; 95
 2be:	f9 e0       	ldi	r31, 0x09	; 9
 2c0:	31 97       	sbiw	r30, 0x01	; 1
 2c2:	f1 f7       	brne	.-4      	; 0x2c0 <main+0x52>
 2c4:	00 c0       	rjmp	.+0      	; 0x2c6 <main+0x58>
 2c6:	00 00       	nop
 2c8:	80 91 64 00 	lds	r24, 0x0064	; 0x800064 <_volumeLevel>
 2cc:	8f 5f       	subi	r24, 0xFF	; 255
 2ce:	80 93 64 00 	sts	0x0064, r24	; 0x800064 <_volumeLevel>
 2d2:	dd cf       	rjmp	.-70     	; 0x28e <main+0x20>
 2d4:	80 91 66 00 	lds	r24, 0x0066	; 0x800066 <_muteOnFire>
 2d8:	88 23       	and	r24, r24
 2da:	a9 f0       	breq	.+42     	; 0x306 <main+0x98>
 2dc:	c2 98       	cbi	0x18, 2	; 24
 2de:	80 91 64 00 	lds	r24, 0x0064	; 0x800064 <_volumeLevel>
 2e2:	88 23       	and	r24, r24
 2e4:	a1 f2       	breq	.-88     	; 0x28e <main+0x20>
 2e6:	c3 9a       	sbi	0x18, 3	; 24
 2e8:	ef e5       	ldi	r30, 0x5F	; 95
 2ea:	f9 e0       	ldi	r31, 0x09	; 9
 2ec:	31 97       	sbiw	r30, 0x01	; 1
 2ee:	f1 f7       	brne	.-4      	; 0x2ec <main+0x7e>
 2f0:	00 c0       	rjmp	.+0      	; 0x2f2 <main+0x84>
 2f2:	00 00       	nop
 2f4:	c3 98       	cbi	0x18, 3	; 24
 2f6:	ef e5       	ldi	r30, 0x5F	; 95
 2f8:	f9 e0       	ldi	r31, 0x09	; 9
 2fa:	31 97       	sbiw	r30, 0x01	; 1
 2fc:	f1 f7       	brne	.-4      	; 0x2fa <main+0x8c>
 2fe:	00 c0       	rjmp	.+0      	; 0x300 <main+0x92>
 300:	00 00       	nop
 302:	81 50       	subi	r24, 0x01	; 1
 304:	ee cf       	rjmp	.-36     	; 0x2e2 <main+0x74>
 306:	80 91 65 00 	lds	r24, 0x0065	; 0x800065 <_muteOffFire>
 30a:	c1 cf       	rjmp	.-126    	; 0x28e <main+0x20>

0000030c <_exit>:
 30c:	f8 94       	cli

0000030e <__stop_program>:
 30e:	ff cf       	rjmp	.-2      	; 0x30e <__stop_program>
